target datalayout = "e-m:e-p270:32:32-p271:32:32-p272:64:64-i64:64-i128:128-f80:128-n8:16:32:64-S128"
target triple = "x86_64-pc-linux-gnu"

%struct.cpu_set_t = type { [16 x i64] }

; Function Attrs: mustprogress nounwind uwtable
define internal noundef zeroext i1 @_ZL29is_running_on_efficiency_corev() #6 {
  %1 = alloca i32, align 4
  %2 = alloca i32, align 4
  %3 = alloca i32, align 4
  %4 = alloca i32, align 4
  %5 = alloca i32, align 4
  %6 = alloca i32, align 4
  call void @llvm.lifetime.start.p0(i64 4, ptr %1) #3
  call void @llvm.lifetime.start.p0(i64 4, ptr %2) #3
  call void @llvm.lifetime.start.p0(i64 4, ptr %3) #3
  call void @llvm.lifetime.start.p0(i64 4, ptr %4) #3
  call void @_ZL5cpuidjjPjS_S_S_(i32 noundef 26, i32 noundef 0, ptr noundef %1, ptr noundef %2, ptr noundef %3, ptr noundef %4)
  call void @llvm.lifetime.start.p0(i64 4, ptr %5) #3
  store i32 32, ptr %5, align 4, !tbaa !3
  call void @llvm.lifetime.start.p0(i64 4, ptr %6) #3
  %7 = load i32, ptr %1, align 4, !tbaa !3
  %8 = and i32 %7, -16777216
  %9 = lshr i32 %8, 24
  store i32 %9, ptr %6, align 4, !tbaa !3
  %10 = load i32, ptr %6, align 4, !tbaa !3
  %11 = load i32, ptr %5, align 4, !tbaa !3
  %12 = icmp eq i32 %10, %11
  call void @llvm.lifetime.end.p0(i64 4, ptr %6) #3
  call void @llvm.lifetime.end.p0(i64 4, ptr %5) #3
  call void @llvm.lifetime.end.p0(i64 4, ptr %4) #3
  call void @llvm.lifetime.end.p0(i64 4, ptr %3) #3
  call void @llvm.lifetime.end.p0(i64 4, ptr %2) #3
  call void @llvm.lifetime.end.p0(i64 4, ptr %1) #3
  ret i1 %12
}

; Function Attrs: mustprogress nounwind uwtable
define internal noundef i32 @_ZL7pin_cpui(i32 noundef %0) #6 {
  %2 = alloca i32, align 4
  %3 = alloca %struct.cpu_set_t, align 8
  %4 = alloca i64, align 8
  %5 = alloca i64, align 8
  store i32 %0, ptr %2, align 4, !tbaa !3
  call void @llvm.lifetime.start.p0(i64 128, ptr %3) #3
  br label %6

6:                                                ; preds = %1
  call void @llvm.memset.p0.i64(ptr align 8 %3, i8 0, i64 128, i1 false)
  br label %7

7:                                                ; preds = %6
  br label %8

8:                                                ; preds = %7
  call void @llvm.lifetime.start.p0(i64 8, ptr %4) #3
  %9 = load i32, ptr %2, align 4, !tbaa !3
  %10 = sext i32 %9 to i64
  store i64 %10, ptr %4, align 8, !tbaa !42
  %11 = load i64, ptr %4, align 8, !tbaa !42
  %12 = udiv i64 %11, 8
  %13 = icmp ult i64 %12, 128
  br i1 %13, label %14, label %25

14:                                               ; preds = %8
  %15 = load i64, ptr %4, align 8, !tbaa !42
  %16 = urem i64 %15, 64
  %17 = shl i64 1, %16
  %18 = getelementptr inbounds nuw %struct.cpu_set_t, ptr %3, i32 0, i32 0
  %19 = getelementptr inbounds [16 x i64], ptr %18, i64 0, i64 0
  %20 = load i64, ptr %4, align 8, !tbaa !42
  %21 = udiv i64 %20, 64
  %22 = getelementptr inbounds nuw i64, ptr %19, i64 %21
  %23 = load i64, ptr %22, align 8, !tbaa !42
  %24 = or i64 %23, %17
  store i64 %24, ptr %22, align 8, !tbaa !42
  br label %26

25:                                               ; preds = %8
  br label %26

26:                                               ; preds = %25, %14
  %27 = phi i64 [ %24, %14 ], [ 0, %25 ]
  store i64 %27, ptr %5, align 8, !tbaa !42
  call void @llvm.lifetime.end.p0(i64 8, ptr %4) #3
  %28 = call i64 @pthread_self() #25
  %29 = call i32 @pthread_setaffinity_np(i64 noundef %28, i64 noundef 128, ptr noundef %3) #3
  call void @llvm.lifetime.end.p0(i64 128, ptr %3) #3
  ret i32 %29
}

; Function Attrs: mustprogress nounwind uwtable
define internal void @_ZL5cpuidjjPjS_S_S_(i32 noundef %0, i32 noundef %1, ptr noundef %2, ptr noundef %3, ptr noundef %4, ptr noundef %5) #6 {
  %7 = alloca i32, align 4
  %8 = alloca i32, align 4
  %9 = alloca ptr, align 8
  %10 = alloca ptr, align 8
  %11 = alloca ptr, align 8
  %12 = alloca ptr, align 8
  store i32 %0, ptr %7, align 4, !tbaa !3
  store i32 %1, ptr %8, align 4, !tbaa !3
  store ptr %2, ptr %9, align 8, !tbaa !140
  store ptr %3, ptr %10, align 8, !tbaa !140
  store ptr %4, ptr %11, align 8, !tbaa !140
  store ptr %5, ptr %12, align 8, !tbaa !140
  %13 = load ptr, ptr %9, align 8, !tbaa !140
  %14 = load ptr, ptr %10, align 8, !tbaa !140
  %15 = load ptr, ptr %11, align 8, !tbaa !140
  %16 = load ptr, ptr %12, align 8, !tbaa !140
  %17 = load i32, ptr %7, align 4, !tbaa !3
  %18 = load i32, ptr %8, align 4, !tbaa !3
  %19 = call { i32, i32, i32, i32 } asm "movq\09%rbx,%rsi\0A\09cpuid\0A\09xchgq\09%rbx,%rsi", "={ax},={si},={cx},={dx},0,2,~{dirflag},~{fpsr},~{flags}"(i32 %17, i32 %18) #15, !srcloc !512
  %20 = extractvalue { i32, i32, i32, i32 } %19, 0
  %21 = extractvalue { i32, i32, i32, i32 } %19, 1
  %22 = extractvalue { i32, i32, i32, i32 } %19, 2
  %23 = extractvalue { i32, i32, i32, i32 } %19, 3
  store i32 %20, ptr %13, align 4, !tbaa !3
  store i32 %21, ptr %14, align 4, !tbaa !3
  store i32 %22, ptr %15, align 4, !tbaa !3
  store i32 %23, ptr %16, align 4, !tbaa !3
  ret void
}

; Function Attrs: mustprogress uwtable
define internal noundef i32 @_ZL19cpu_count_math_cpusi(i32 noundef %0) #4 {
  %2 = alloca i32, align 4
  %3 = alloca i32, align 4
  %4 = alloca i32, align 4
  %5 = alloca i32, align 4
  %6 = alloca i32, align 4
  store i32 %0, ptr %3, align 4, !tbaa !3
  call void @llvm.lifetime.start.p0(i64 4, ptr %4) #3
  store i32 0, ptr %4, align 4, !tbaa !3
  call void @llvm.lifetime.start.p0(i64 4, ptr %5) #3
  store i32 0, ptr %5, align 4, !tbaa !3
  br label %7

7:                                                ; preds = %25, %1
  %8 = load i32, ptr %5, align 4, !tbaa !3
  %9 = load i32, ptr %3, align 4, !tbaa !3
  %10 = icmp slt i32 %8, %9
  br i1 %10, label %12, label %11

11:                                               ; preds = %7
  store i32 2, ptr %6, align 4
  br label %28

12:                                               ; preds = %7
  %13 = load i32, ptr %5, align 4, !tbaa !3
  %14 = call noundef i32 @_ZL7pin_cpui(i32 noundef %13)
  %15 = icmp ne i32 %14, 0
  br i1 %15, label %16, label %17

16:                                               ; preds = %12
  store i32 -1, ptr %2, align 4
  store i32 1, ptr %6, align 4
  br label %28

17:                                               ; preds = %12
  %18 = call noundef zeroext i1 @_ZL29is_running_on_efficiency_corev()
  br i1 %18, label %19, label %20

19:                                               ; preds = %17
  br label %25

20:                                               ; preds = %17
  %21 = load i32, ptr %5, align 4, !tbaa !3
  %22 = add nsw i32 %21, 1
  store i32 %22, ptr %5, align 4, !tbaa !3
  %23 = load i32, ptr %4, align 4, !tbaa !3
  %24 = add nsw i32 %23, 1
  store i32 %24, ptr %4, align 4, !tbaa !3
  br label %25

25:                                               ; preds = %20, %19
  %26 = load i32, ptr %5, align 4, !tbaa !3
  %27 = add nsw i32 %26, 1
  store i32 %27, ptr %5, align 4, !tbaa !3
  br label %7, !llvm.loop !26

28:                                               ; preds = %16, %11
  call void @llvm.lifetime.end.p0(i64 4, ptr %5) #3
  %29 = load i32, ptr %6, align 4
  switch i32 %29, label %32 [
    i32 2, label %30
  ]

30:                                               ; preds = %28
  %31 = load i32, ptr %4, align 4, !tbaa !3
  store i32 %31, ptr %2, align 4
  store i32 1, ptr %6, align 4
  br label %32

32:                                               ; preds = %30, %28
  call void @llvm.lifetime.end.p0(i64 4, ptr %4) #3
  %33 = load i32, ptr %2, align 4
  ret i32 %33
}

; Function Attrs: mustprogress uwtable
define internal noundef zeroext i1 @_ZL13is_hybrid_cpuv() #4 {
  %1 = alloca i32, align 4
  %2 = alloca i32, align 4
  %3 = alloca i32, align 4
  %4 = alloca i32, align 4
  call void @llvm.lifetime.start.p0(i64 4, ptr %1) #3
  call void @llvm.lifetime.start.p0(i64 4, ptr %2) #3
  call void @llvm.lifetime.start.p0(i64 4, ptr %3) #3
  call void @llvm.lifetime.start.p0(i64 4, ptr %4) #3
  call void @_ZL5cpuidjjPjS_S_S_(i32 noundef 7, i32 noundef 0, ptr noundef %1, ptr noundef %2, ptr noundef %3, ptr noundef %4)
  %5 = load i32, ptr %4, align 4, !tbaa !3
  %6 = and i32 %5, 32768
  %7 = icmp ne i32 %6, 0
  %8 = xor i1 %7, true
  %9 = xor i1 %8, true
  call void @llvm.lifetime.end.p0(i64 4, ptr %4) #3
  call void @llvm.lifetime.end.p0(i64 4, ptr %3) #3
  call void @llvm.lifetime.end.p0(i64 4, ptr %2) #3
  call void @llvm.lifetime.end.p0(i64 4, ptr %1) #3
  ret i1 %9
}

; Function Attrs: mustprogress uwtable
define noundef i32 @_Z16cpu_get_num_mathv() #4 {
  %1 = alloca i32, align 4
  %2 = alloca i32, align 4
  %3 = alloca i32, align 4
  %4 = alloca %struct.cpu_set_t, align 8
  %5 = alloca i32, align 4
  call void @llvm.lifetime.start.p0(i64 4, ptr %2) #3
  %6 = call i64 @sysconf(i32 noundef 84) #3
  %7 = trunc i64 %6 to i32
  store i32 %7, ptr %2, align 4, !tbaa !3
  %8 = load i32, ptr %2, align 4, !tbaa !3
  %9 = icmp slt i32 %8, 1
  br i1 %9, label %10, label %12

10:                                               ; preds = %0
  %11 = call noundef i32 @_Z26cpu_get_num_physical_coresv()
  store i32 %11, ptr %1, align 4
  store i32 1, ptr %3, align 4
  br label %37

12:                                               ; preds = %0
  %13 = call noundef zeroext i1 @_ZL13is_hybrid_cpuv()
  br i1 %13, label %14, label %35

14:                                               ; preds = %12
  call void @llvm.lifetime.start.p0(i64 128, ptr %4) #3
  %15 = call i64 @pthread_self() #25
  %16 = call i32 @pthread_getaffinity_np(i64 noundef %15, i64 noundef 128, ptr noundef %4) #3
  %17 = icmp ne i32 %16, 0
  br i1 %17, label %31, label %18

18:                                               ; preds = %14
  call void @llvm.lifetime.start.p0(i64 4, ptr %5) #3
  %19 = load i32, ptr %2, align 4, !tbaa !3
  %20 = call noundef i32 @_ZL19cpu_count_math_cpusi(i32 noundef %19)
  store i32 %20, ptr %5, align 4, !tbaa !3
  %21 = call i64 @pthread_self() #25
  %22 = call i32 @pthread_setaffinity_np(i64 noundef %21, i64 noundef 128, ptr noundef %4) #3
  %23 = load i32, ptr %5, align 4, !tbaa !3
  %24 = icmp sgt i32 %23, 0
  br i1 %24, label %25, label %27

25:                                               ; preds = %18
  %26 = load i32, ptr %5, align 4, !tbaa !3
  store i32 %26, ptr %1, align 4
  store i32 1, ptr %3, align 4
  br label %28

27:                                               ; preds = %18
  store i32 0, ptr %3, align 4
  br label %28

28:                                               ; preds = %27, %25
  call void @llvm.lifetime.end.p0(i64 4, ptr %5) #3
  %29 = load i32, ptr %3, align 4
  switch i32 %29, label %32 [
    i32 0, label %30
  ]

30:                                               ; preds = %28
  br label %31

31:                                               ; preds = %30, %14
  store i32 0, ptr %3, align 4
  br label %32

32:                                               ; preds = %31, %28
  call void @llvm.lifetime.end.p0(i64 128, ptr %4) #3
  %33 = load i32, ptr %3, align 4
  switch i32 %33, label %37 [
    i32 0, label %34
  ]

34:                                               ; preds = %32
  br label %35

35:                                               ; preds = %34, %12
  %36 = call noundef i32 @_Z26cpu_get_num_physical_coresv()
  store i32 %36, ptr %1, align 4
  store i32 1, ptr %3, align 4
  br label %37

37:                                               ; preds = %35, %32, %10
  call void @llvm.lifetime.end.p0(i64 4, ptr %2) #3
  %38 = load i32, ptr %1, align 4
  ret i32 %38
}