; Function Attrs: mustprogress uwtable
define noundef i32 @_Z16cpu_get_num_mathv() local_unnamed_addr #3 {
  %1 = alloca %struct.cpu_set_t, align 8
  %2 = alloca %struct.cpu_set_t, align 8
  %3 = tail call i64 @sysconf(i32 noundef 84) #37
  %4 = trunc i64 %3 to i32
  %5 = icmp slt i32 %4, 1
  br i1 %5, label %6, label %8

6:                                                ; preds = %0
  %7 = tail call noundef i32 @_Z26cpu_get_num_physical_coresv()
  br label %37

8:                                                ; preds = %0
  %9 = tail call { i32, i32, i32, i32 } asm "movq\09%rbx,%rsi\0A\09cpuid\0A\09xchgq\09%rbx,%rsi", "={ax},={si},={cx},={dx},0,2,~{dirflag},~{fpsr},~{flags}"(i32 7, i32 0) #42, !srcloc !69
  %10 = extractvalue { i32, i32, i32, i32 } %9, 3
  %11 = and i32 %10, 32768
  %.not15 = icmp eq i32 %11, 0
  br i1 %.not15, label %35, label %12

12:                                               ; preds = %8
  call void @llvm.lifetime.start.p0(i64 128, ptr nonnull %2) #37
  %13 = tail call i64 @pthread_self() #43
  %14 = call i32 @pthread_getaffinity_np(i64 noundef %13, i64 noundef 128, ptr noundef nonnull %2) #37
  %.not = icmp eq i32 %14, 0
  br i1 %.not, label %.preheader, label %.sink.split

.preheader:                                       ; preds = %12, %26
  %.0916.i = phi i32 [ %31, %26 ], [ 0, %12 ]
  %.01015.i = phi i32 [ %.111.i, %26 ], [ 0, %12 ]
  call void @llvm.lifetime.start.p0(i64 128, ptr nonnull %1) #37
  call void @llvm.memset.p0.i64(ptr noundef nonnull align 8 dereferenceable(128) %1, i8 0, i64 128, i1 false)
  %15 = icmp ult i32 %.0916.i, 1024
  br i1 %15, label %16, label %_ZL7pin_cpui.exit.i

16:                                               ; preds = %.preheader
  %17 = zext nneg i32 %.0916.i to i64
  %18 = and i64 %17, 63
  %19 = shl nuw i64 1, %18
  %20 = lshr i64 %17, 6
  %21 = getelementptr inbounds nuw i64, ptr %1, i64 %20
  %22 = load i64, ptr %21, align 8, !tbaa !70
  %23 = or i64 %22, %19
  store i64 %23, ptr %21, align 8, !tbaa !70
  br label %_ZL7pin_cpui.exit.i

_ZL7pin_cpui.exit.i:                              ; preds = %16, %.preheader
  %24 = call noundef i32 @pthread_setaffinity_np(i64 noundef %13, i64 noundef 128, ptr noundef nonnull %1) #37
  call void @llvm.lifetime.end.p0(i64 128, ptr nonnull %1) #37
  %.not.i = icmp eq i32 %24, 0
  br i1 %.not.i, label %26, label %.thread13

.thread13:                                        ; preds = %_ZL7pin_cpui.exit.i
  %25 = call i32 @pthread_setaffinity_np(i64 noundef %13, i64 noundef 128, ptr noundef nonnull %2) #37
  br label %.sink.split

26:                                               ; preds = %_ZL7pin_cpui.exit.i
  %27 = call { i32, i32, i32, i32 } asm "movq\09%rbx,%rsi\0A\09cpuid\0A\09xchgq\09%rbx,%rsi", "={ax},={si},={cx},={dx},0,2,~{dirflag},~{fpsr},~{flags}"(i32 26, i32 0) #42, !srcloc !69
  %28 = extractvalue { i32, i32, i32, i32 } %27, 0
  %.mask.i.i = and i32 %28, -16777216
  %29 = icmp ne i32 %.mask.i.i, 536870912
  %30 = zext i1 %29 to i32
  %.111.i = add nuw nsw i32 %.01015.i, %30
  %.1.i = add i32 %.0916.i, 1
  %31 = add i32 %.1.i, %30
  %.not14.i = icmp slt i32 %31, %4
  br i1 %.not14.i, label %.preheader, label %32, !llvm.loop !71

32:                                               ; preds = %26
  %33 = call i32 @pthread_setaffinity_np(i64 noundef %13, i64 noundef 128, ptr noundef nonnull %2) #37
  %34 = icmp eq i32 %.111.i, 0
  call void @llvm.lifetime.end.p0(i64 128, ptr nonnull %2) #37
  br i1 %34, label %35, label %37

.sink.split:                                      ; preds = %12, %.thread13
  call void @llvm.lifetime.end.p0(i64 128, ptr nonnull %2) #37
  br label %35

35:                                               ; preds = %.sink.split, %32, %8
  %36 = call noundef i32 @_Z26cpu_get_num_physical_coresv()
  br label %37

37:                                               ; preds = %32, %35, %6
  %.0 = phi i32 [ %7, %6 ], [ %36, %35 ], [ %.111.i, %32 ]
  ret i32 %.0
}